; Function Attrs: nounwind uwtable
define hidden noundef zeroext i1 @Wayland_data_offer_add_mime(ptr noundef %0, ptr noundef %1) local_unnamed_addr #0 {
  %3 = getelementptr inbounds nuw i8, ptr %0, i64 8
  br label %4

4:                                                ; preds = %5, %2
  %.pn10.i.i = phi ptr [ %3, %2 ], [ %.pn.i.i, %5 ]
  %.pn.in.i.i = getelementptr inbounds nuw i8, ptr %.pn10.i.i, i64 8
  %.pn.i.i = load ptr, ptr %.pn.in.i.i, align 8
  %.not.i.i = icmp eq ptr %.pn.i.i, %3
  br i1 %.not.i.i, label %9, label %5

5:                                                ; preds = %4
  %.0.i.i = getelementptr inbounds i8, ptr %.pn.i.i, i64 -24
  %6 = load ptr, ptr %.0.i.i, align 8
  %7 = tail call i32 @SDL_strcmp_REAL(ptr noundef %6, ptr noundef %1) #12
  %8 = icmp eq i32 %7, 0
  br i1 %8, label %mime_data_list_add.exit, label %4, !llvm.loop !9

9:                                                ; preds = %4
  %10 = tail call noalias dereferenceable_or_null(40) ptr @SDL_calloc_REAL(i64 noundef 1, i64 noundef 40) #14
  %.not43.i = icmp eq ptr %10, null
  br i1 %.not43.i, label %mime_data_list_add.exit, label %11

11:                                               ; preds = %9
  %12 = load ptr, ptr @WAYLAND_wl_list_insert, align 8
  %13 = getelementptr inbounds nuw i8, ptr %10, i64 24
  tail call void %12(ptr noundef nonnull %3, ptr noundef nonnull %13) #12
  %14 = tail call i64 @SDL_strlen_REAL(ptr noundef %1) #12
  %15 = add i64 %14, 1
  %16 = tail call noalias ptr @SDL_malloc_REAL(i64 noundef %15) #12
  store ptr %16, ptr %10, align 8
  %.not44.i = icmp eq ptr %16, null
  br i1 %.not44.i, label %mime_data_list_add.exit, label %17

17:                                               ; preds = %11
  tail call void @llvm.memcpy.p0.p0.i64(ptr nonnull align 1 %16, ptr align 1 %1, i64 %15, i1 false)
  br label %mime_data_list_add.exit

mime_data_list_add.exit:                          ; preds = %5, %9, %11, %17
  %.034.i = phi i1 [ true, %17 ], [ false, %9 ], [ false, %11 ], [ true, %5 ]
  tail call void @SDL_free_REAL(ptr noundef null) #12
  ret i1 %.034.i
}